; Function Attrs: mustprogress uwtable
define internal void @_ZNSt17_Function_handlerIFvRN12_GLOBAL__N_113test_pmgen_pmESt8functionIFvvEEEZNS0_13TestPmgenPass16execute_generateESt6vectorINSt7__cxx1112basic_stringIcSt11char_traitsIcESaIcEEESaISE_EEPN5Yosys5RTLIL6DesignEEUlS2_S5_E_E9_M_invokeERKSt9_Any_dataS2_OS5_(ptr nonnull readnone align 8 captures(none) %0, ptr noundef nonnull align 8 dereferenceable(1212) %1, ptr noundef nonnull align 8 captures(none) dereferenceable(32) %2) #5 align 2 personality ptr @__gxx_personality_v0 {
  %4 = alloca %"class.std::function", align 8
  %5 = alloca %"class.std::function", align 8
  call void @llvm.lifetime.start.p0(i64 32, ptr nonnull %5)
  %6 = getelementptr inbounds nuw i8, ptr %5, i64 24
  %7 = getelementptr inbounds nuw i8, ptr %2, i64 24
  call void @llvm.memset.p0.i64(ptr noundef nonnull align 8 dereferenceable(32) %5, i8 0, i64 24, i1 false)
  %8 = load ptr, ptr %7, align 8, !tbaa !41
  store ptr %8, ptr %6, align 8, !tbaa !41
  %9 = getelementptr inbounds nuw i8, ptr %2, i64 16
  %10 = load ptr, ptr %9, align 8, !tbaa !36
  %.not.i.i.not.i.i.i = icmp eq ptr %10, null
  br i1 %.not.i.i.not.i.i.i, label %_ZNSt8functionIFvvEEC2EOS1_.exit.thread.i.i, label %13

_ZNSt8functionIFvvEEC2EOS1_.exit.thread.i.i:      ; preds = %3
  call void @llvm.lifetime.start.p0(i64 32, ptr nonnull %4)
  %11 = getelementptr inbounds nuw i8, ptr %4, i64 16
  %12 = getelementptr inbounds nuw i8, ptr %5, i64 16
  call void @llvm.memset.p0.i64(ptr noundef nonnull align 8 dereferenceable(32) %4, i8 0, i64 32, i1 false)
  br label %_ZNSt8functionIFvvEEC2ERKS1_.exit.i.i.i

13:                                               ; preds = %3
  %14 = getelementptr inbounds nuw i8, ptr %5, i64 16
  call void @llvm.memcpy.p0.p0.i64(ptr noundef nonnull align 8 dereferenceable(32) %5, ptr noundef nonnull align 8 dereferenceable(32) %2, i64 16, i1 false), !tbaa.struct !691
  store ptr %10, ptr %14, align 8, !tbaa !36
  tail call void @llvm.memset.p0.i64(ptr noundef nonnull align 8 dereferenceable(16) %9, i8 0, i64 16, i1 false)
  call void @llvm.lifetime.start.p0(i64 32, ptr nonnull %4)
  %15 = getelementptr inbounds nuw i8, ptr %4, i64 16
  call void @llvm.memset.p0.i64(ptr noundef nonnull align 8 dereferenceable(32) %4, i8 0, i64 32, i1 false)
  %16 = invoke noundef zeroext i1 %10(ptr noundef nonnull align 8 dereferenceable(32) %4, ptr noundef nonnull align 8 dereferenceable(32) %5, i32 noundef 2)
          to label %17 unwind label %21

17:                                               ; preds = %13
  %18 = getelementptr inbounds nuw i8, ptr %4, i64 24
  %19 = load ptr, ptr %6, align 8, !tbaa !41
  store ptr %19, ptr %18, align 8, !tbaa !41
  %20 = load ptr, ptr %14, align 8, !tbaa !36
  store ptr %20, ptr %15, align 8, !tbaa !36
  br label %_ZNSt8functionIFvvEEC2ERKS1_.exit.i.i.i

21:                                               ; preds = %13
  %22 = landingpad { ptr, i32 }
          cleanup
  %23 = load ptr, ptr %15, align 8, !tbaa !36
  %.not.i.i.i.i.i = icmp eq ptr %23, null
  br i1 %.not.i.i.i.i.i, label %.body.i.i, label %24

24:                                               ; preds = %21
  %25 = invoke noundef zeroext i1 %23(ptr noundef nonnull align 8 dereferenceable(32) %4, ptr noundef nonnull align 8 dereferenceable(32) %4, i32 noundef 3)
          to label %.body.i.i unwind label %26

26:                                               ; preds = %24
  %27 = landingpad { ptr, i32 }
          catch ptr null
  %28 = extractvalue { ptr, i32 } %27, 0
  call void @__clang_call_terminate(ptr %28) #34
  unreachable

_ZNSt8functionIFvvEEC2ERKS1_.exit.i.i.i:          ; preds = %17, %_ZNSt8functionIFvvEEC2EOS1_.exit.thread.i.i
  %29 = phi ptr [ %12, %_ZNSt8functionIFvvEEC2EOS1_.exit.thread.i.i ], [ %14, %17 ]
  %30 = phi ptr [ %11, %_ZNSt8functionIFvvEEC2EOS1_.exit.thread.i.i ], [ %15, %17 ]
  %31 = invoke fastcc noundef i32 @_ZN12_GLOBAL__N_113test_pmgen_pm10run_reduceESt8functionIFvvEE(ptr noundef nonnull align 8 dereferenceable(1212) %1, ptr noundef %4)
          to label %32 unwind label %39

32:                                               ; preds = %_ZNSt8functionIFvvEEC2ERKS1_.exit.i.i.i
  %33 = load ptr, ptr %30, align 8, !tbaa !36
  %.not.i.i.i.i = icmp eq ptr %33, null
  br i1 %.not.i.i.i.i, label %47, label %34

34:                                               ; preds = %32
  %35 = invoke noundef zeroext i1 %33(ptr noundef nonnull align 8 dereferenceable(32) %4, ptr noundef nonnull align 8 dereferenceable(32) %4, i32 noundef 3)
          to label %47 unwind label %36

36:                                               ; preds = %34
  %37 = landingpad { ptr, i32 }
          catch ptr null
  %38 = extractvalue { ptr, i32 } %37, 0
  call void @__clang_call_terminate(ptr %38) #34
  unreachable

39:                                               ; preds = %_ZNSt8functionIFvvEEC2ERKS1_.exit.i.i.i
  %40 = landingpad { ptr, i32 }
          cleanup
  %41 = load ptr, ptr %30, align 8, !tbaa !36
  %.not.i2.i.i.i = icmp eq ptr %41, null
  br i1 %.not.i2.i.i.i, label %.body.i.i, label %42

42:                                               ; preds = %39
  %43 = invoke noundef zeroext i1 %41(ptr noundef nonnull align 8 dereferenceable(32) %4, ptr noundef nonnull align 8 dereferenceable(32) %4, i32 noundef 3)
          to label %.body.i.i unwind label %44

44:                                               ; preds = %42
  %45 = landingpad { ptr, i32 }
          catch ptr null
  %46 = extractvalue { ptr, i32 } %45, 0
  call void @__clang_call_terminate(ptr %46) #34
  unreachable

47:                                               ; preds = %34, %32
  call void @llvm.lifetime.end.p0(i64 32, ptr nonnull %4)
  %48 = load ptr, ptr %29, align 8, !tbaa !36
  %.not.i.i.i = icmp eq ptr %48, null
  br i1 %.not.i.i.i, label %_ZSt10__invoke_rIvRZN12_GLOBAL__N_113TestPmgenPass16execute_generateESt6vectorINSt7__cxx1112basic_stringIcSt11char_traitsIcESaIcEEESaIS8_EEPN5Yosys5RTLIL6DesignEEUlRNS0_13test_pmgen_pmESt8functionIFvvEEE_JSG_SJ_EENSt9enable_ifIX16is_invocable_r_vIT_T0_DpT1_EESN_E4typeEOSO_DpOSP_.exit, label %49

49:                                               ; preds = %47
  %50 = invoke noundef zeroext i1 %48(ptr noundef nonnull align 8 dereferenceable(32) %5, ptr noundef nonnull align 8 dereferenceable(32) %5, i32 noundef 3)
          to label %_ZSt10__invoke_rIvRZN12_GLOBAL__N_113TestPmgenPass16execute_generateESt6vectorINSt7__cxx1112basic_stringIcSt11char_traitsIcESaIcEEESaIS8_EEPN5Yosys5RTLIL6DesignEEUlRNS0_13test_pmgen_pmESt8functionIFvvEEE_JSG_SJ_EENSt9enable_ifIX16is_invocable_r_vIT_T0_DpT1_EESN_E4typeEOSO_DpOSP_.exit unwind label %51

51:                                               ; preds = %49
  %52 = landingpad { ptr, i32 }
          catch ptr null
  %53 = extractvalue { ptr, i32 } %52, 0
  call void @__clang_call_terminate(ptr %53) #34
  unreachable

.body.i.i:                                        ; preds = %42, %39, %24, %21
  %54 = phi ptr [ %14, %24 ], [ %14, %21 ], [ %29, %39 ], [ %29, %42 ]
  %eh.lpad-body.i.i = phi { ptr, i32 } [ %22, %24 ], [ %22, %21 ], [ %40, %39 ], [ %40, %42 ]
  %55 = load ptr, ptr %54, align 8, !tbaa !36
  %.not.i4.i.i = icmp eq ptr %55, null
  br i1 %.not.i4.i.i, label %_ZNSt14_Function_baseD2Ev.exit5.i.i, label %56

56:                                               ; preds = %.body.i.i
  %57 = invoke noundef zeroext i1 %55(ptr noundef nonnull align 8 dereferenceable(32) %5, ptr noundef nonnull align 8 dereferenceable(32) %5, i32 noundef 3)
          to label %_ZNSt14_Function_baseD2Ev.exit5.i.i unwind label %58

58:                                               ; preds = %56
  %59 = landingpad { ptr, i32 }
          catch ptr null
  %60 = extractvalue { ptr, i32 } %59, 0
  call void @__clang_call_terminate(ptr %60) #34
  unreachable

_ZNSt14_Function_baseD2Ev.exit5.i.i:              ; preds = %56, %.body.i.i
  resume { ptr, i32 } %eh.lpad-body.i.i

_ZSt10__invoke_rIvRZN12_GLOBAL__N_113TestPmgenPass16execute_generateESt6vectorINSt7__cxx1112basic_stringIcSt11char_traitsIcESaIcEEESaIS8_EEPN5Yosys5RTLIL6DesignEEUlRNS0_13test_pmgen_pmESt8functionIFvvEEE_JSG_SJ_EENSt9enable_ifIX16is_invocable_r_vIT_T0_DpT1_EESN_E4typeEOSO_DpOSP_.exit: ; preds = %47, %49
  call void @llvm.lifetime.end.p0(i64 32, ptr nonnull %5)
  ret void
}